ARM GAS  C:\Users\Riccardo\AppData\Local\Temp\cc4hQyvr.s 			page 1


   1              		.syntax unified
   2              		.cpu cortex-m3
   3              		.fpu softvfp
   4              		.eabi_attribute 20, 1
   5              		.eabi_attribute 21, 1
   6              		.eabi_attribute 23, 3
   7              		.eabi_attribute 24, 1
   8              		.eabi_attribute 25, 1
   9              		.eabi_attribute 26, 1
  10              		.eabi_attribute 30, 1
  11              		.eabi_attribute 34, 1
  12              		.eabi_attribute 18, 4
  13              		.thumb
  14              		.syntax unified
  15              		.file	"I2C_Interface.c"
  16              		.text
  17              	.Ltext0:
  18              		.cfi_sections	.debug_frame
  19              		.section	.text.I2C_Peripheral_Start,"ax",%progbits
  20              		.align	2
  21              		.global	I2C_Peripheral_Start
  22              		.thumb
  23              		.thumb_func
  24              		.type	I2C_Peripheral_Start, %function
  25              	I2C_Peripheral_Start:
  26              	.LFB0:
  27              		.file 1 "I2C_Interface.c"
   1:I2C_Interface.c **** /*
   2:I2C_Interface.c **** 
   3:I2C_Interface.c **** * This file includes all the required source code to interface
   4:I2C_Interface.c **** 
   5:I2C_Interface.c **** * the I2C peripheral.
   6:I2C_Interface.c **** 
   7:I2C_Interface.c **** */
   8:I2C_Interface.c **** 
   9:I2C_Interface.c **** 
  10:I2C_Interface.c **** 
  11:I2C_Interface.c **** /**
  12:I2C_Interface.c **** 
  13:I2C_Interface.c **** *   \brief Value returned if device present on I2C bus.
  14:I2C_Interface.c **** 
  15:I2C_Interface.c **** */
  16:I2C_Interface.c **** 
  17:I2C_Interface.c **** #ifndef DEVICE_CONNECTED
  18:I2C_Interface.c **** 
  19:I2C_Interface.c ****     #define DEVICE_CONNECTED 1
  20:I2C_Interface.c **** 
  21:I2C_Interface.c **** #endif
  22:I2C_Interface.c **** 
  23:I2C_Interface.c **** 
  24:I2C_Interface.c **** 
  25:I2C_Interface.c **** /**
  26:I2C_Interface.c **** 
  27:I2C_Interface.c **** *   \brief Value returned if device not present on I2C bus.
  28:I2C_Interface.c **** 
  29:I2C_Interface.c **** */
  30:I2C_Interface.c **** 
ARM GAS  C:\Users\Riccardo\AppData\Local\Temp\cc4hQyvr.s 			page 2


  31:I2C_Interface.c **** #ifndef DEVICE_UNCONNECTED
  32:I2C_Interface.c **** 
  33:I2C_Interface.c ****     #define DEVICE_UNCONNECTED 0
  34:I2C_Interface.c **** 
  35:I2C_Interface.c **** #endif
  36:I2C_Interface.c **** 
  37:I2C_Interface.c **** 
  38:I2C_Interface.c **** 
  39:I2C_Interface.c **** #include "I2C_Interface.h" 
  40:I2C_Interface.c **** 
  41:I2C_Interface.c **** #include "I2C_Master.h"
  42:I2C_Interface.c **** 
  43:I2C_Interface.c **** 
  44:I2C_Interface.c **** 
  45:I2C_Interface.c ****     ErrorCode I2C_Peripheral_Start(void) 
  46:I2C_Interface.c **** 
  47:I2C_Interface.c ****     {
  28              		.loc 1 47 0
  29              		.cfi_startproc
  30              		@ args = 0, pretend = 0, frame = 0
  31              		@ frame_needed = 0, uses_anonymous_args = 0
  32 0000 08B5     		push	{r3, lr}
  33              		.cfi_def_cfa_offset 8
  34              		.cfi_offset 3, -8
  35              		.cfi_offset 14, -4
  48:I2C_Interface.c **** 
  49:I2C_Interface.c ****         // Start I2C peripheral
  50:I2C_Interface.c **** 
  51:I2C_Interface.c ****         I2C_Master_Start();  
  36              		.loc 1 51 0
  37 0002 FFF7FEFF 		bl	I2C_Master_Start
  38              	.LVL0:
  52:I2C_Interface.c **** 
  53:I2C_Interface.c ****         
  54:I2C_Interface.c **** 
  55:I2C_Interface.c ****         // Return no error since start function does not return any error
  56:I2C_Interface.c **** 
  57:I2C_Interface.c ****         return NO_ERROR;
  58:I2C_Interface.c **** 
  59:I2C_Interface.c ****     }
  39              		.loc 1 59 0
  40 0006 0020     		movs	r0, #0
  41 0008 08BD     		pop	{r3, pc}
  42              		.cfi_endproc
  43              	.LFE0:
  44              		.size	I2C_Peripheral_Start, .-I2C_Peripheral_Start
  45 000a 00BF     		.section	.text.I2C_Peripheral_Stop,"ax",%progbits
  46              		.align	2
  47              		.global	I2C_Peripheral_Stop
  48              		.thumb
  49              		.thumb_func
  50              		.type	I2C_Peripheral_Stop, %function
  51              	I2C_Peripheral_Stop:
  52              	.LFB1:
  60:I2C_Interface.c **** 
  61:I2C_Interface.c ****     
  62:I2C_Interface.c **** 
ARM GAS  C:\Users\Riccardo\AppData\Local\Temp\cc4hQyvr.s 			page 3


  63:I2C_Interface.c ****     
  64:I2C_Interface.c **** 
  65:I2C_Interface.c ****     ErrorCode I2C_Peripheral_Stop(void)
  66:I2C_Interface.c **** 
  67:I2C_Interface.c ****     {
  53              		.loc 1 67 0
  54              		.cfi_startproc
  55              		@ args = 0, pretend = 0, frame = 0
  56              		@ frame_needed = 0, uses_anonymous_args = 0
  57 0000 08B5     		push	{r3, lr}
  58              		.cfi_def_cfa_offset 8
  59              		.cfi_offset 3, -8
  60              		.cfi_offset 14, -4
  68:I2C_Interface.c **** 
  69:I2C_Interface.c ****         // Stop I2C peripheral
  70:I2C_Interface.c **** 
  71:I2C_Interface.c ****         I2C_Master_Stop();
  61              		.loc 1 71 0
  62 0002 FFF7FEFF 		bl	I2C_Master_Stop
  63              	.LVL1:
  72:I2C_Interface.c **** 
  73:I2C_Interface.c ****         // Return no error since stop function does not return any error
  74:I2C_Interface.c **** 
  75:I2C_Interface.c ****         return NO_ERROR;
  76:I2C_Interface.c **** 
  77:I2C_Interface.c ****     }
  64              		.loc 1 77 0
  65 0006 0020     		movs	r0, #0
  66 0008 08BD     		pop	{r3, pc}
  67              		.cfi_endproc
  68              	.LFE1:
  69              		.size	I2C_Peripheral_Stop, .-I2C_Peripheral_Stop
  70 000a 00BF     		.section	.text.I2C_Peripheral_ReadRegister,"ax",%progbits
  71              		.align	2
  72              		.global	I2C_Peripheral_ReadRegister
  73              		.thumb
  74              		.thumb_func
  75              		.type	I2C_Peripheral_ReadRegister, %function
  76              	I2C_Peripheral_ReadRegister:
  77              	.LFB2:
  78:I2C_Interface.c **** 
  79:I2C_Interface.c **** 
  80:I2C_Interface.c **** 
  81:I2C_Interface.c ****     ErrorCode I2C_Peripheral_ReadRegister(uint8_t device_address, 
  82:I2C_Interface.c **** 
  83:I2C_Interface.c ****                                             uint8_t register_address,
  84:I2C_Interface.c **** 
  85:I2C_Interface.c ****                                             uint8_t* data)
  86:I2C_Interface.c **** 
  87:I2C_Interface.c ****     {
  78              		.loc 1 87 0
  79              		.cfi_startproc
  80              		@ args = 0, pretend = 0, frame = 0
  81              		@ frame_needed = 0, uses_anonymous_args = 0
  82              	.LVL2:
  83 0000 F8B5     		push	{r3, r4, r5, r6, r7, lr}
  84              		.cfi_def_cfa_offset 24
ARM GAS  C:\Users\Riccardo\AppData\Local\Temp\cc4hQyvr.s 			page 4


  85              		.cfi_offset 3, -24
  86              		.cfi_offset 4, -20
  87              		.cfi_offset 5, -16
  88              		.cfi_offset 6, -12
  89              		.cfi_offset 7, -8
  90              		.cfi_offset 14, -4
  91 0002 0646     		mov	r6, r0
  92 0004 0D46     		mov	r5, r1
  93 0006 1746     		mov	r7, r2
  88:I2C_Interface.c **** 
  89:I2C_Interface.c ****         // Send start condition
  90:I2C_Interface.c **** 
  91:I2C_Interface.c ****         uint8_t error = I2C_Master_MasterSendStart(device_address,I2C_Master_WRITE_XFER_MODE);
  94              		.loc 1 91 0
  95 0008 0021     		movs	r1, #0
  96              	.LVL3:
  97 000a FFF7FEFF 		bl	I2C_Master_MasterSendStart
  98              	.LVL4:
  92:I2C_Interface.c **** 
  93:I2C_Interface.c ****         if (error == I2C_Master_MSTR_NO_ERROR)
  99              		.loc 1 93 0
 100 000e 0446     		mov	r4, r0
 101 0010 68B9     		cbnz	r0, .L6
  94:I2C_Interface.c **** 
  95:I2C_Interface.c ****         {
  96:I2C_Interface.c **** 
  97:I2C_Interface.c ****             // Write address of register to be read
  98:I2C_Interface.c **** 
  99:I2C_Interface.c ****             error = I2C_Master_MasterWriteByte(register_address);
 102              		.loc 1 99 0
 103 0012 2846     		mov	r0, r5
 104              	.LVL5:
 105 0014 FFF7FEFF 		bl	I2C_Master_MasterWriteByte
 106              	.LVL6:
 100:I2C_Interface.c **** 
 101:I2C_Interface.c ****             if (error == I2C_Master_MSTR_NO_ERROR)
 107              		.loc 1 101 0
 108 0018 0446     		mov	r4, r0
 109 001a 40B9     		cbnz	r0, .L6
 102:I2C_Interface.c **** 
 103:I2C_Interface.c ****             {
 104:I2C_Interface.c **** 
 105:I2C_Interface.c ****                 // Send restart condition
 106:I2C_Interface.c **** 
 107:I2C_Interface.c ****                 error = I2C_Master_MasterSendRestart(device_address, I2C_Master_READ_XFER_MODE);
 110              		.loc 1 107 0
 111 001c 0121     		movs	r1, #1
 112 001e 3046     		mov	r0, r6
 113              	.LVL7:
 114 0020 FFF7FEFF 		bl	I2C_Master_MasterSendRestart
 115              	.LVL8:
 108:I2C_Interface.c **** 
 109:I2C_Interface.c ****                 if (error == I2C_Master_MSTR_NO_ERROR)
 116              		.loc 1 109 0
 117 0024 0446     		mov	r4, r0
 118 0026 10B9     		cbnz	r0, .L6
 110:I2C_Interface.c **** 
ARM GAS  C:\Users\Riccardo\AppData\Local\Temp\cc4hQyvr.s 			page 5


 111:I2C_Interface.c ****                 {
 112:I2C_Interface.c **** 
 113:I2C_Interface.c ****                     // Read data without acknowledgement
 114:I2C_Interface.c **** 
 115:I2C_Interface.c ****                     *data = I2C_Master_MasterReadByte(I2C_Master_NAK_DATA);
 119              		.loc 1 115 0
 120 0028 FFF7FEFF 		bl	I2C_Master_MasterReadByte
 121              	.LVL9:
 122 002c 3870     		strb	r0, [r7]
 123              	.L6:
 124              	.LVL10:
 116:I2C_Interface.c **** 
 117:I2C_Interface.c ****                 }
 118:I2C_Interface.c **** 
 119:I2C_Interface.c ****             }
 120:I2C_Interface.c **** 
 121:I2C_Interface.c ****         }
 122:I2C_Interface.c **** 
 123:I2C_Interface.c ****         // Send stop condition
 124:I2C_Interface.c **** 
 125:I2C_Interface.c ****         I2C_Master_MasterSendStop();
 125              		.loc 1 125 0
 126 002e FFF7FEFF 		bl	I2C_Master_MasterSendStop
 127              	.LVL11:
 126:I2C_Interface.c **** 
 127:I2C_Interface.c ****         // Return error code
 128:I2C_Interface.c **** 
 129:I2C_Interface.c ****         return error ? ERROR : NO_ERROR;
 130:I2C_Interface.c **** 
 131:I2C_Interface.c ****     }
 128              		.loc 1 131 0
 129 0032 201C     		adds	r0, r4, #0
 130 0034 18BF     		it	ne
 131 0036 0120     		movne	r0, #1
 132 0038 F8BD     		pop	{r3, r4, r5, r6, r7, pc}
 133              		.cfi_endproc
 134              	.LFE2:
 135              		.size	I2C_Peripheral_ReadRegister, .-I2C_Peripheral_ReadRegister
 136 003a 00BF     		.section	.text.I2C_Peripheral_ReadRegisterMulti,"ax",%progbits
 137              		.align	2
 138              		.global	I2C_Peripheral_ReadRegisterMulti
 139              		.thumb
 140              		.thumb_func
 141              		.type	I2C_Peripheral_ReadRegisterMulti, %function
 142              	I2C_Peripheral_ReadRegisterMulti:
 143              	.LFB3:
 132:I2C_Interface.c **** 
 133:I2C_Interface.c ****     
 134:I2C_Interface.c **** 
 135:I2C_Interface.c ****     ErrorCode I2C_Peripheral_ReadRegisterMulti(uint8_t device_address,
 136:I2C_Interface.c **** 
 137:I2C_Interface.c ****                                                 uint8_t register_address,
 138:I2C_Interface.c **** 
 139:I2C_Interface.c ****                                                 uint8_t register_count,
 140:I2C_Interface.c **** 
 141:I2C_Interface.c ****                                                 uint8_t* data)
 142:I2C_Interface.c **** 
ARM GAS  C:\Users\Riccardo\AppData\Local\Temp\cc4hQyvr.s 			page 6


 143:I2C_Interface.c ****     {
 144              		.loc 1 143 0
 145              		.cfi_startproc
 146              		@ args = 0, pretend = 0, frame = 0
 147              		@ frame_needed = 0, uses_anonymous_args = 0
 148              	.LVL12:
 149 0000 2DE9F041 		push	{r4, r5, r6, r7, r8, lr}
 150              		.cfi_def_cfa_offset 24
 151              		.cfi_offset 4, -24
 152              		.cfi_offset 5, -20
 153              		.cfi_offset 6, -16
 154              		.cfi_offset 7, -12
 155              		.cfi_offset 8, -8
 156              		.cfi_offset 14, -4
 157 0004 8046     		mov	r8, r0
 158 0006 0F46     		mov	r7, r1
 159 0008 1446     		mov	r4, r2
 160 000a 1E46     		mov	r6, r3
 144:I2C_Interface.c **** 
 145:I2C_Interface.c ****         // Send start condition
 146:I2C_Interface.c **** 
 147:I2C_Interface.c ****         uint8_t error = I2C_Master_MasterSendStart(device_address,I2C_Master_WRITE_XFER_MODE);
 161              		.loc 1 147 0
 162 000c 0021     		movs	r1, #0
 163              	.LVL13:
 164 000e FFF7FEFF 		bl	I2C_Master_MasterSendStart
 165              	.LVL14:
 148:I2C_Interface.c **** 
 149:I2C_Interface.c ****         if (error == I2C_Master_MSTR_NO_ERROR)
 166              		.loc 1 149 0
 167 0012 0546     		mov	r5, r0
 168 0014 D0B9     		cbnz	r0, .L9
 150:I2C_Interface.c **** 
 151:I2C_Interface.c ****         {
 152:I2C_Interface.c **** 
 153:I2C_Interface.c ****             // Write address of register to be read
 154:I2C_Interface.c **** 
 155:I2C_Interface.c ****             error = I2C_Master_MasterWriteByte(register_address|(0x80));
 169              		.loc 1 155 0
 170 0016 47F08000 		orr	r0, r7, #128
 171              	.LVL15:
 172 001a FFF7FEFF 		bl	I2C_Master_MasterWriteByte
 173              	.LVL16:
 156:I2C_Interface.c **** 
 157:I2C_Interface.c ****             if (error == I2C_Master_MSTR_NO_ERROR)
 174              		.loc 1 157 0
 175 001e 0546     		mov	r5, r0
 176 0020 A0B9     		cbnz	r0, .L9
 158:I2C_Interface.c **** 
 159:I2C_Interface.c ****             {
 160:I2C_Interface.c **** 
 161:I2C_Interface.c ****                 // Send restart condition
 162:I2C_Interface.c **** 
 163:I2C_Interface.c ****                 error = I2C_Master_MasterSendRestart(device_address, I2C_Master_READ_XFER_MODE);
 177              		.loc 1 163 0
 178 0022 0121     		movs	r1, #1
 179 0024 4046     		mov	r0, r8
ARM GAS  C:\Users\Riccardo\AppData\Local\Temp\cc4hQyvr.s 			page 7


 180              	.LVL17:
 181 0026 FFF7FEFF 		bl	I2C_Master_MasterSendRestart
 182              	.LVL18:
 164:I2C_Interface.c **** 
 165:I2C_Interface.c ****                 if (error == I2C_Master_MSTR_NO_ERROR)
 183              		.loc 1 165 0
 184 002a 0546     		mov	r5, r0
 185 002c 70B9     		cbnz	r0, .L9
 166:I2C_Interface.c **** 
 167:I2C_Interface.c ****                 {
 168:I2C_Interface.c **** 
 169:I2C_Interface.c ****                     register_count = register_count-1; // Start counting from 0
 186              		.loc 1 169 0
 187 002e 013C     		subs	r4, r4, #1
 188 0030 E4B2     		uxtb	r4, r4
 189              	.LVL19:
 170:I2C_Interface.c **** 
 171:I2C_Interface.c ****                     while(register_count!=0){
 190              		.loc 1 171 0
 191 0032 05E0     		b	.L10
 192              	.LVL20:
 193              	.L11:
 172:I2C_Interface.c **** 
 173:I2C_Interface.c ****                         data[register_count] = I2C_Master_MasterReadByte(I2C_Master_ACK_DATA);
 194              		.loc 1 173 0
 195 0034 0120     		movs	r0, #1
 196 0036 FFF7FEFF 		bl	I2C_Master_MasterReadByte
 197              	.LVL21:
 198 003a 3055     		strb	r0, [r6, r4]
 174:I2C_Interface.c **** 
 175:I2C_Interface.c ****                         register_count--;
 199              		.loc 1 175 0
 200 003c 013C     		subs	r4, r4, #1
 201              	.LVL22:
 202 003e E4B2     		uxtb	r4, r4
 203              	.LVL23:
 204              	.L10:
 171:I2C_Interface.c **** 
 205              		.loc 1 171 0
 206 0040 002C     		cmp	r4, #0
 207 0042 F7D1     		bne	.L11
 176:I2C_Interface.c **** 
 177:I2C_Interface.c ****                     }
 178:I2C_Interface.c **** 
 179:I2C_Interface.c ****                     data[0] = I2C_Master_MasterReadByte(I2C_Master_NAK_DATA);
 208              		.loc 1 179 0
 209 0044 0020     		movs	r0, #0
 210 0046 FFF7FEFF 		bl	I2C_Master_MasterReadByte
 211              	.LVL24:
 212 004a 3070     		strb	r0, [r6]
 213              	.LVL25:
 214              	.L9:
 180:I2C_Interface.c **** 
 181:I2C_Interface.c ****                     
 182:I2C_Interface.c **** 
 183:I2C_Interface.c ****                 }
 184:I2C_Interface.c **** 
ARM GAS  C:\Users\Riccardo\AppData\Local\Temp\cc4hQyvr.s 			page 8


 185:I2C_Interface.c ****             }
 186:I2C_Interface.c **** 
 187:I2C_Interface.c ****         }
 188:I2C_Interface.c **** 
 189:I2C_Interface.c ****         // Send stop condition
 190:I2C_Interface.c **** 
 191:I2C_Interface.c ****         I2C_Master_MasterSendStop();
 215              		.loc 1 191 0
 216 004c FFF7FEFF 		bl	I2C_Master_MasterSendStop
 217              	.LVL26:
 192:I2C_Interface.c **** 
 193:I2C_Interface.c ****         // Return error code
 194:I2C_Interface.c **** 
 195:I2C_Interface.c ****         return error ? ERROR : NO_ERROR;
 196:I2C_Interface.c **** 
 197:I2C_Interface.c ****     }
 218              		.loc 1 197 0
 219 0050 281C     		adds	r0, r5, #0
 220 0052 18BF     		it	ne
 221 0054 0120     		movne	r0, #1
 222 0056 BDE8F081 		pop	{r4, r5, r6, r7, r8, pc}
 223              		.cfi_endproc
 224              	.LFE3:
 225              		.size	I2C_Peripheral_ReadRegisterMulti, .-I2C_Peripheral_ReadRegisterMulti
 226 005a 00BF     		.section	.text.I2C_Peripheral_WriteRegister,"ax",%progbits
 227              		.align	2
 228              		.global	I2C_Peripheral_WriteRegister
 229              		.thumb
 230              		.thumb_func
 231              		.type	I2C_Peripheral_WriteRegister, %function
 232              	I2C_Peripheral_WriteRegister:
 233              	.LFB4:
 198:I2C_Interface.c **** 
 199:I2C_Interface.c ****     
 200:I2C_Interface.c **** 
 201:I2C_Interface.c ****     ErrorCode I2C_Peripheral_WriteRegister(uint8_t device_address,
 202:I2C_Interface.c **** 
 203:I2C_Interface.c ****                                             uint8_t register_address,
 204:I2C_Interface.c **** 
 205:I2C_Interface.c ****                                             uint8_t data)
 206:I2C_Interface.c **** 
 207:I2C_Interface.c ****     {
 234              		.loc 1 207 0
 235              		.cfi_startproc
 236              		@ args = 0, pretend = 0, frame = 0
 237              		@ frame_needed = 0, uses_anonymous_args = 0
 238              	.LVL27:
 239 0000 70B5     		push	{r4, r5, r6, lr}
 240              		.cfi_def_cfa_offset 16
 241              		.cfi_offset 4, -16
 242              		.cfi_offset 5, -12
 243              		.cfi_offset 6, -8
 244              		.cfi_offset 14, -4
 245 0002 0D46     		mov	r5, r1
 246 0004 1646     		mov	r6, r2
 208:I2C_Interface.c **** 
 209:I2C_Interface.c ****         // Send start condition
ARM GAS  C:\Users\Riccardo\AppData\Local\Temp\cc4hQyvr.s 			page 9


 210:I2C_Interface.c **** 
 211:I2C_Interface.c ****         uint8_t error = I2C_Master_MasterSendStart(device_address, I2C_Master_WRITE_XFER_MODE);
 247              		.loc 1 211 0
 248 0006 0021     		movs	r1, #0
 249              	.LVL28:
 250 0008 FFF7FEFF 		bl	I2C_Master_MasterSendStart
 251              	.LVL29:
 212:I2C_Interface.c **** 
 213:I2C_Interface.c ****         if (error == I2C_Master_MSTR_NO_ERROR)
 252              		.loc 1 213 0
 253 000c 0446     		mov	r4, r0
 254 000e 40B9     		cbnz	r0, .L14
 214:I2C_Interface.c **** 
 215:I2C_Interface.c ****         {
 216:I2C_Interface.c **** 
 217:I2C_Interface.c ****             // Write register address
 218:I2C_Interface.c **** 
 219:I2C_Interface.c ****             error = I2C_Master_MasterWriteByte(register_address);
 255              		.loc 1 219 0
 256 0010 2846     		mov	r0, r5
 257              	.LVL30:
 258 0012 FFF7FEFF 		bl	I2C_Master_MasterWriteByte
 259              	.LVL31:
 220:I2C_Interface.c **** 
 221:I2C_Interface.c ****             if (error == I2C_Master_MSTR_NO_ERROR)
 260              		.loc 1 221 0
 261 0016 0446     		mov	r4, r0
 262 0018 18B9     		cbnz	r0, .L14
 222:I2C_Interface.c **** 
 223:I2C_Interface.c ****             {
 224:I2C_Interface.c **** 
 225:I2C_Interface.c ****                 // Write byte of interest
 226:I2C_Interface.c **** 
 227:I2C_Interface.c ****                 error = I2C_Master_MasterWriteByte(data);
 263              		.loc 1 227 0
 264 001a 3046     		mov	r0, r6
 265              	.LVL32:
 266 001c FFF7FEFF 		bl	I2C_Master_MasterWriteByte
 267              	.LVL33:
 268 0020 0446     		mov	r4, r0
 269              	.LVL34:
 270              	.L14:
 228:I2C_Interface.c **** 
 229:I2C_Interface.c ****             }
 230:I2C_Interface.c **** 
 231:I2C_Interface.c ****         }
 232:I2C_Interface.c **** 
 233:I2C_Interface.c ****         // Send stop condition
 234:I2C_Interface.c **** 
 235:I2C_Interface.c ****         I2C_Master_MasterSendStop();
 271              		.loc 1 235 0
 272 0022 FFF7FEFF 		bl	I2C_Master_MasterSendStop
 273              	.LVL35:
 236:I2C_Interface.c **** 
 237:I2C_Interface.c ****         // Return error code
 238:I2C_Interface.c **** 
 239:I2C_Interface.c ****         return error ? ERROR : NO_ERROR;
ARM GAS  C:\Users\Riccardo\AppData\Local\Temp\cc4hQyvr.s 			page 10


 240:I2C_Interface.c **** 
 241:I2C_Interface.c ****     }
 274              		.loc 1 241 0
 275 0026 201C     		adds	r0, r4, #0
 276 0028 18BF     		it	ne
 277 002a 0120     		movne	r0, #1
 278 002c 70BD     		pop	{r4, r5, r6, pc}
 279              		.cfi_endproc
 280              	.LFE4:
 281              		.size	I2C_Peripheral_WriteRegister, .-I2C_Peripheral_WriteRegister
 282 002e 00BF     		.section	.text.I2C_Peripheral_WriteRegisterMulti,"ax",%progbits
 283              		.align	2
 284              		.global	I2C_Peripheral_WriteRegisterMulti
 285              		.thumb
 286              		.thumb_func
 287              		.type	I2C_Peripheral_WriteRegisterMulti, %function
 288              	I2C_Peripheral_WriteRegisterMulti:
 289              	.LFB5:
 242:I2C_Interface.c **** 
 243:I2C_Interface.c ****     
 244:I2C_Interface.c **** 
 245:I2C_Interface.c ****     ErrorCode I2C_Peripheral_WriteRegisterMulti(uint8_t device_address,
 246:I2C_Interface.c **** 
 247:I2C_Interface.c ****                                             uint8_t register_address,
 248:I2C_Interface.c **** 
 249:I2C_Interface.c ****                                             uint8_t register_count,
 250:I2C_Interface.c **** 
 251:I2C_Interface.c ****                                             uint8_t* data)
 252:I2C_Interface.c **** 
 253:I2C_Interface.c ****     {
 290              		.loc 1 253 0
 291              		.cfi_startproc
 292              		@ args = 0, pretend = 0, frame = 0
 293              		@ frame_needed = 0, uses_anonymous_args = 0
 294              	.LVL36:
 295 0000 F8B5     		push	{r3, r4, r5, r6, r7, lr}
 296              		.cfi_def_cfa_offset 24
 297              		.cfi_offset 3, -24
 298              		.cfi_offset 4, -20
 299              		.cfi_offset 5, -16
 300              		.cfi_offset 6, -12
 301              		.cfi_offset 7, -8
 302              		.cfi_offset 14, -4
 303 0002 0E46     		mov	r6, r1
 304 0004 1546     		mov	r5, r2
 305 0006 1F46     		mov	r7, r3
 254:I2C_Interface.c **** 
 255:I2C_Interface.c ****         // Send start condition
 256:I2C_Interface.c **** 
 257:I2C_Interface.c ****         uint8_t error = I2C_Master_MasterSendStart(device_address, I2C_Master_WRITE_XFER_MODE);
 306              		.loc 1 257 0
 307 0008 0021     		movs	r1, #0
 308              	.LVL37:
 309 000a FFF7FEFF 		bl	I2C_Master_MasterSendStart
 310              	.LVL38:
 258:I2C_Interface.c **** 
 259:I2C_Interface.c ****         if (error == I2C_Master_MSTR_NO_ERROR)
ARM GAS  C:\Users\Riccardo\AppData\Local\Temp\cc4hQyvr.s 			page 11


 311              		.loc 1 259 0
 312 000e 0446     		mov	r4, r0
 313 0010 68B9     		cbnz	r0, .L17
 260:I2C_Interface.c **** 
 261:I2C_Interface.c ****         {
 262:I2C_Interface.c **** 
 263:I2C_Interface.c ****             // Write register address
 264:I2C_Interface.c **** 
 265:I2C_Interface.c ****             error = I2C_Master_MasterWriteByte(register_address);
 314              		.loc 1 265 0
 315 0012 3046     		mov	r0, r6
 316              	.LVL39:
 317 0014 FFF7FEFF 		bl	I2C_Master_MasterWriteByte
 318              	.LVL40:
 266:I2C_Interface.c **** 
 267:I2C_Interface.c ****             if (error == I2C_Master_MSTR_NO_ERROR)
 319              		.loc 1 267 0
 320 0018 0446     		mov	r4, r0
 321 001a 40B9     		cbnz	r0, .L17
 268:I2C_Interface.c **** 
 269:I2C_Interface.c ****             {
 270:I2C_Interface.c **** 
 271:I2C_Interface.c ****                 // Write byte of interest
 272:I2C_Interface.c **** 
 273:I2C_Interface.c ****                 register_count=register_count-1;
 322              		.loc 1 273 0
 323 001c 013D     		subs	r5, r5, #1
 324 001e EDB2     		uxtb	r5, r5
 325              	.LVL41:
 274:I2C_Interface.c **** 
 275:I2C_Interface.c ****                 while(register_address>0){
 326              		.loc 1 275 0
 327 0020 03E0     		b	.L18
 328              	.LVL42:
 329              	.L19:
 276:I2C_Interface.c **** 
 277:I2C_Interface.c ****                 error = I2C_Master_MasterWriteByte(data[register_count]);
 330              		.loc 1 277 0
 331 0022 785D     		ldrb	r0, [r7, r5]	@ zero_extendqisi2
 332 0024 FFF7FEFF 		bl	I2C_Master_MasterWriteByte
 333              	.LVL43:
 334 0028 0446     		mov	r4, r0
 335              	.LVL44:
 336              	.L18:
 275:I2C_Interface.c **** 
 337              		.loc 1 275 0
 338 002a 002E     		cmp	r6, #0
 339 002c F9D1     		bne	.L19
 340              	.LVL45:
 341              	.L17:
 278:I2C_Interface.c **** 
 279:I2C_Interface.c ****                 }
 280:I2C_Interface.c **** 
 281:I2C_Interface.c ****             }
 282:I2C_Interface.c **** 
 283:I2C_Interface.c ****         }
 284:I2C_Interface.c **** 
ARM GAS  C:\Users\Riccardo\AppData\Local\Temp\cc4hQyvr.s 			page 12


 285:I2C_Interface.c ****         // Send stop condition
 286:I2C_Interface.c **** 
 287:I2C_Interface.c ****         I2C_Master_MasterSendStop();
 342              		.loc 1 287 0
 343 002e FFF7FEFF 		bl	I2C_Master_MasterSendStop
 344              	.LVL46:
 288:I2C_Interface.c **** 
 289:I2C_Interface.c ****         // Return error code
 290:I2C_Interface.c **** 
 291:I2C_Interface.c ****         return error ? ERROR : NO_ERROR;
 292:I2C_Interface.c **** 
 293:I2C_Interface.c ****     }
 345              		.loc 1 293 0
 346 0032 201C     		adds	r0, r4, #0
 347 0034 18BF     		it	ne
 348 0036 0120     		movne	r0, #1
 349 0038 F8BD     		pop	{r3, r4, r5, r6, r7, pc}
 350              		.cfi_endproc
 351              	.LFE5:
 352              		.size	I2C_Peripheral_WriteRegisterMulti, .-I2C_Peripheral_WriteRegisterMulti
 353 003a 00BF     		.section	.text.I2C_Peripheral_IsDeviceConnected,"ax",%progbits
 354              		.align	2
 355              		.global	I2C_Peripheral_IsDeviceConnected
 356              		.thumb
 357              		.thumb_func
 358              		.type	I2C_Peripheral_IsDeviceConnected, %function
 359              	I2C_Peripheral_IsDeviceConnected:
 360              	.LFB6:
 294:I2C_Interface.c **** 
 295:I2C_Interface.c ****     
 296:I2C_Interface.c **** 
 297:I2C_Interface.c ****     
 298:I2C_Interface.c **** 
 299:I2C_Interface.c ****     
 300:I2C_Interface.c **** 
 301:I2C_Interface.c ****     uint8_t I2C_Peripheral_IsDeviceConnected(uint8_t device_address)
 302:I2C_Interface.c **** 
 303:I2C_Interface.c ****     {
 361              		.loc 1 303 0
 362              		.cfi_startproc
 363              		@ args = 0, pretend = 0, frame = 0
 364              		@ frame_needed = 0, uses_anonymous_args = 0
 365              	.LVL47:
 366 0000 10B5     		push	{r4, lr}
 367              		.cfi_def_cfa_offset 8
 368              		.cfi_offset 4, -8
 369              		.cfi_offset 14, -4
 304:I2C_Interface.c **** 
 305:I2C_Interface.c ****         // Send a start condition followed by a stop condition
 306:I2C_Interface.c **** 
 307:I2C_Interface.c ****         uint8_t error = I2C_Master_MasterSendStart(device_address, I2C_Master_WRITE_XFER_MODE);
 370              		.loc 1 307 0
 371 0002 0021     		movs	r1, #0
 372 0004 FFF7FEFF 		bl	I2C_Master_MasterSendStart
 373              	.LVL48:
 374 0008 0446     		mov	r4, r0
 375              	.LVL49:
ARM GAS  C:\Users\Riccardo\AppData\Local\Temp\cc4hQyvr.s 			page 13


 308:I2C_Interface.c **** 
 309:I2C_Interface.c ****         I2C_Master_MasterSendStop();
 376              		.loc 1 309 0
 377 000a FFF7FEFF 		bl	I2C_Master_MasterSendStop
 378              	.LVL50:
 310:I2C_Interface.c **** 
 311:I2C_Interface.c ****         // If no error generated during stop, device is connected
 312:I2C_Interface.c **** 
 313:I2C_Interface.c ****         if (error == I2C_Master_MSTR_NO_ERROR)
 379              		.loc 1 313 0
 380 000e 0CB9     		cbnz	r4, .L23
 314:I2C_Interface.c **** 
 315:I2C_Interface.c ****         {
 316:I2C_Interface.c **** 
 317:I2C_Interface.c ****             return DEVICE_CONNECTED;
 381              		.loc 1 317 0
 382 0010 0120     		movs	r0, #1
 383 0012 10BD     		pop	{r4, pc}
 384              	.LVL51:
 385              	.L23:
 318:I2C_Interface.c **** 
 319:I2C_Interface.c ****         }
 320:I2C_Interface.c **** 
 321:I2C_Interface.c ****         return DEVICE_UNCONNECTED;
 386              		.loc 1 321 0
 387 0014 0020     		movs	r0, #0
 322:I2C_Interface.c **** 
 323:I2C_Interface.c ****     }
 388              		.loc 1 323 0
 389 0016 10BD     		pop	{r4, pc}
 390              		.cfi_endproc
 391              	.LFE6:
 392              		.size	I2C_Peripheral_IsDeviceConnected, .-I2C_Peripheral_IsDeviceConnected
 393              		.text
 394              	.Letext0:
 395              		.file 2 "c:\\program files (x86)\\cypress\\psoc creator\\4.3\\psoc creator\\import\\gnu\\arm\\5.4.
 396              		.file 3 "c:\\program files (x86)\\cypress\\psoc creator\\4.3\\psoc creator\\import\\gnu\\arm\\5.4.
 397              		.file 4 "ErrorCodes.h"
 398              		.file 5 "Generated_Source\\PSoC5/I2C_Master.h"