ARM GAS  C:\Users\Riccardo\AppData\Local\Temp\cc42cHCg.s 			page 1


   1              		.syntax unified
   2              		.cpu cortex-m3
   3              		.fpu softvfp
   4              		.eabi_attribute 20, 1
   5              		.eabi_attribute 21, 1
   6              		.eabi_attribute 23, 3
   7              		.eabi_attribute 24, 1
   8              		.eabi_attribute 25, 1
   9              		.eabi_attribute 26, 1
  10              		.eabi_attribute 30, 1
  11              		.eabi_attribute 34, 1
  12              		.eabi_attribute 18, 4
  13              		.thumb
  14              		.syntax unified
  15              		.file	"I2C_Interface.c"
  16              		.text
  17              	.Ltext0:
  18              		.cfi_sections	.debug_frame
  19              		.section	.text.I2C_Peripheral_Start,"ax",%progbits
  20              		.align	2
  21              		.global	I2C_Peripheral_Start
  22              		.thumb
  23              		.thumb_func
  24              		.type	I2C_Peripheral_Start, %function
  25              	I2C_Peripheral_Start:
  26              	.LFB0:
  27              		.file 1 "I2C_Interface.c"
   1:I2C_Interface.c **** /*
   2:I2C_Interface.c **** * This file includes all the required source code to interface
   3:I2C_Interface.c **** * the I2C peripheral.
   4:I2C_Interface.c **** */
   5:I2C_Interface.c **** 
   6:I2C_Interface.c **** /**
   7:I2C_Interface.c **** *   \brief Value returned if device present on I2C bus.
   8:I2C_Interface.c **** */
   9:I2C_Interface.c **** #ifndef DEVICE_CONNECTED
  10:I2C_Interface.c ****     #define DEVICE_CONNECTED 1
  11:I2C_Interface.c **** #endif
  12:I2C_Interface.c **** 
  13:I2C_Interface.c **** /**
  14:I2C_Interface.c **** *   \brief Value returned if device not present on I2C bus.
  15:I2C_Interface.c **** */
  16:I2C_Interface.c **** #ifndef DEVICE_UNCONNECTED
  17:I2C_Interface.c ****     #define DEVICE_UNCONNECTED 0
  18:I2C_Interface.c **** #endif
  19:I2C_Interface.c **** 
  20:I2C_Interface.c **** #include "I2C_Interface.h" 
  21:I2C_Interface.c **** #include "I2C_Master.h"
  22:I2C_Interface.c **** 
  23:I2C_Interface.c ****     ErrorCode I2C_Peripheral_Start(void) 
  24:I2C_Interface.c ****     {
  28              		.loc 1 24 0
  29              		.cfi_startproc
  30              		@ args = 0, pretend = 0, frame = 0
  31              		@ frame_needed = 0, uses_anonymous_args = 0
  32 0000 08B5     		push	{r3, lr}
  33              		.cfi_def_cfa_offset 8
ARM GAS  C:\Users\Riccardo\AppData\Local\Temp\cc42cHCg.s 			page 2


  34              		.cfi_offset 3, -8
  35              		.cfi_offset 14, -4
  25:I2C_Interface.c ****         // Start I2C peripheral
  26:I2C_Interface.c ****         I2C_Master_Start();  
  36              		.loc 1 26 0
  37 0002 FFF7FEFF 		bl	I2C_Master_Start
  38              	.LVL0:
  27:I2C_Interface.c ****         
  28:I2C_Interface.c ****         // Return no error since start function does not return any error
  29:I2C_Interface.c ****         return NO_ERROR;
  30:I2C_Interface.c ****     }
  39              		.loc 1 30 0
  40 0006 0020     		movs	r0, #0
  41 0008 08BD     		pop	{r3, pc}
  42              		.cfi_endproc
  43              	.LFE0:
  44              		.size	I2C_Peripheral_Start, .-I2C_Peripheral_Start
  45 000a 00BF     		.section	.text.I2C_Peripheral_Stop,"ax",%progbits
  46              		.align	2
  47              		.global	I2C_Peripheral_Stop
  48              		.thumb
  49              		.thumb_func
  50              		.type	I2C_Peripheral_Stop, %function
  51              	I2C_Peripheral_Stop:
  52              	.LFB1:
  31:I2C_Interface.c ****     
  32:I2C_Interface.c ****     
  33:I2C_Interface.c ****     ErrorCode I2C_Peripheral_Stop(void)
  34:I2C_Interface.c ****     {
  53              		.loc 1 34 0
  54              		.cfi_startproc
  55              		@ args = 0, pretend = 0, frame = 0
  56              		@ frame_needed = 0, uses_anonymous_args = 0
  57 0000 08B5     		push	{r3, lr}
  58              		.cfi_def_cfa_offset 8
  59              		.cfi_offset 3, -8
  60              		.cfi_offset 14, -4
  35:I2C_Interface.c ****         // Stop I2C peripheral
  36:I2C_Interface.c ****         I2C_Master_Stop();
  61              		.loc 1 36 0
  62 0002 FFF7FEFF 		bl	I2C_Master_Stop
  63              	.LVL1:
  37:I2C_Interface.c ****         // Return no error since stop function does not return any error
  38:I2C_Interface.c ****         return NO_ERROR;
  39:I2C_Interface.c ****     }
  64              		.loc 1 39 0
  65 0006 0020     		movs	r0, #0
  66 0008 08BD     		pop	{r3, pc}
  67              		.cfi_endproc
  68              	.LFE1:
  69              		.size	I2C_Peripheral_Stop, .-I2C_Peripheral_Stop
  70 000a 00BF     		.section	.text.I2C_Peripheral_ReadRegister,"ax",%progbits
  71              		.align	2
  72              		.global	I2C_Peripheral_ReadRegister
  73              		.thumb
  74              		.thumb_func
  75              		.type	I2C_Peripheral_ReadRegister, %function
ARM GAS  C:\Users\Riccardo\AppData\Local\Temp\cc42cHCg.s 			page 3


  76              	I2C_Peripheral_ReadRegister:
  77              	.LFB2:
  40:I2C_Interface.c **** 
  41:I2C_Interface.c ****     ErrorCode I2C_Peripheral_ReadRegister(uint8_t device_address, 
  42:I2C_Interface.c ****                                             uint8_t register_address,
  43:I2C_Interface.c ****                                             uint8_t* data)
  44:I2C_Interface.c ****     {
  78              		.loc 1 44 0
  79              		.cfi_startproc
  80              		@ args = 0, pretend = 0, frame = 0
  81              		@ frame_needed = 0, uses_anonymous_args = 0
  82              	.LVL2:
  83 0000 F8B5     		push	{r3, r4, r5, r6, r7, lr}
  84              		.cfi_def_cfa_offset 24
  85              		.cfi_offset 3, -24
  86              		.cfi_offset 4, -20
  87              		.cfi_offset 5, -16
  88              		.cfi_offset 6, -12
  89              		.cfi_offset 7, -8
  90              		.cfi_offset 14, -4
  91 0002 0646     		mov	r6, r0
  92 0004 0D46     		mov	r5, r1
  93 0006 1746     		mov	r7, r2
  45:I2C_Interface.c ****         // Send start condition
  46:I2C_Interface.c ****         uint8_t error = I2C_Master_MasterSendStart(device_address,I2C_Master_WRITE_XFER_MODE);
  94              		.loc 1 46 0
  95 0008 0021     		movs	r1, #0
  96              	.LVL3:
  97 000a FFF7FEFF 		bl	I2C_Master_MasterSendStart
  98              	.LVL4:
  47:I2C_Interface.c ****         if (error == I2C_Master_MSTR_NO_ERROR)
  99              		.loc 1 47 0
 100 000e 0446     		mov	r4, r0
 101 0010 68B9     		cbnz	r0, .L6
  48:I2C_Interface.c ****         {
  49:I2C_Interface.c ****             // Write address of register to be read
  50:I2C_Interface.c ****             error = I2C_Master_MasterWriteByte(register_address);
 102              		.loc 1 50 0
 103 0012 2846     		mov	r0, r5
 104              	.LVL5:
 105 0014 FFF7FEFF 		bl	I2C_Master_MasterWriteByte
 106              	.LVL6:
  51:I2C_Interface.c ****             if (error == I2C_Master_MSTR_NO_ERROR)
 107              		.loc 1 51 0
 108 0018 0446     		mov	r4, r0
 109 001a 40B9     		cbnz	r0, .L6
  52:I2C_Interface.c ****             {
  53:I2C_Interface.c ****                 // Send restart condition
  54:I2C_Interface.c ****                 error = I2C_Master_MasterSendRestart(device_address, I2C_Master_READ_XFER_MODE);
 110              		.loc 1 54 0
 111 001c 0121     		movs	r1, #1
 112 001e 3046     		mov	r0, r6
 113              	.LVL7:
 114 0020 FFF7FEFF 		bl	I2C_Master_MasterSendRestart
 115              	.LVL8:
  55:I2C_Interface.c ****                 if (error == I2C_Master_MSTR_NO_ERROR)
 116              		.loc 1 55 0
ARM GAS  C:\Users\Riccardo\AppData\Local\Temp\cc42cHCg.s 			page 4


 117 0024 0446     		mov	r4, r0
 118 0026 10B9     		cbnz	r0, .L6
  56:I2C_Interface.c ****                 {
  57:I2C_Interface.c ****                     // Read data without acknowledgement
  58:I2C_Interface.c ****                     *data = I2C_Master_MasterReadByte(I2C_Master_NAK_DATA);
 119              		.loc 1 58 0
 120 0028 FFF7FEFF 		bl	I2C_Master_MasterReadByte
 121              	.LVL9:
 122 002c 3870     		strb	r0, [r7]
 123              	.L6:
 124              	.LVL10:
  59:I2C_Interface.c ****                 }
  60:I2C_Interface.c ****             }
  61:I2C_Interface.c ****         }
  62:I2C_Interface.c ****         // Send stop condition
  63:I2C_Interface.c ****         I2C_Master_MasterSendStop();
 125              		.loc 1 63 0
 126 002e FFF7FEFF 		bl	I2C_Master_MasterSendStop
 127              	.LVL11:
  64:I2C_Interface.c ****         // Return error code
  65:I2C_Interface.c ****         return error ? ERROR : NO_ERROR;
  66:I2C_Interface.c ****     }
 128              		.loc 1 66 0
 129 0032 201C     		adds	r0, r4, #0
 130 0034 18BF     		it	ne
 131 0036 0120     		movne	r0, #1
 132 0038 F8BD     		pop	{r3, r4, r5, r6, r7, pc}
 133              		.cfi_endproc
 134              	.LFE2:
 135              		.size	I2C_Peripheral_ReadRegister, .-I2C_Peripheral_ReadRegister
 136 003a 00BF     		.section	.text.I2C_Peripheral_ReadRegisterMulti,"ax",%progbits
 137              		.align	2
 138              		.global	I2C_Peripheral_ReadRegisterMulti
 139              		.thumb
 140              		.thumb_func
 141              		.type	I2C_Peripheral_ReadRegisterMulti, %function
 142              	I2C_Peripheral_ReadRegisterMulti:
 143              	.LFB3:
  67:I2C_Interface.c ****     
  68:I2C_Interface.c ****     ErrorCode I2C_Peripheral_ReadRegisterMulti(uint8_t device_address,
  69:I2C_Interface.c ****                                                 uint8_t register_address,
  70:I2C_Interface.c ****                                                 uint8_t register_count,
  71:I2C_Interface.c ****                                                 uint8_t* data)
  72:I2C_Interface.c ****     {
 144              		.loc 1 72 0
 145              		.cfi_startproc
 146              		@ args = 0, pretend = 0, frame = 0
 147              		@ frame_needed = 0, uses_anonymous_args = 0
 148              	.LVL12:
 149 0000 2DE9F041 		push	{r4, r5, r6, r7, r8, lr}
 150              		.cfi_def_cfa_offset 24
 151              		.cfi_offset 4, -24
 152              		.cfi_offset 5, -20
 153              		.cfi_offset 6, -16
 154              		.cfi_offset 7, -12
 155              		.cfi_offset 8, -8
 156              		.cfi_offset 14, -4
ARM GAS  C:\Users\Riccardo\AppData\Local\Temp\cc42cHCg.s 			page 5


 157 0004 8046     		mov	r8, r0
 158 0006 0F46     		mov	r7, r1
 159 0008 1446     		mov	r4, r2
 160 000a 1E46     		mov	r6, r3
  73:I2C_Interface.c ****         // Send start condition
  74:I2C_Interface.c ****         uint8_t error = I2C_Master_MasterSendStart(device_address,I2C_Master_WRITE_XFER_MODE);
 161              		.loc 1 74 0
 162 000c 0021     		movs	r1, #0
 163              	.LVL13:
 164 000e FFF7FEFF 		bl	I2C_Master_MasterSendStart
 165              	.LVL14:
  75:I2C_Interface.c ****         if (error == I2C_Master_MSTR_NO_ERROR)
 166              		.loc 1 75 0
 167 0012 0546     		mov	r5, r0
 168 0014 D0B9     		cbnz	r0, .L9
 169              	.LVL15:
  76:I2C_Interface.c ****         {
  77:I2C_Interface.c ****             // Write address of register to be read
  78:I2C_Interface.c ****             register_address |= 0x80;
  79:I2C_Interface.c ****             error = I2C_Master_MasterWriteByte(register_address|(0x80));
 170              		.loc 1 79 0
 171 0016 47F08000 		orr	r0, r7, #128
 172              	.LVL16:
 173 001a FFF7FEFF 		bl	I2C_Master_MasterWriteByte
 174              	.LVL17:
  80:I2C_Interface.c ****             if (error == I2C_Master_MSTR_NO_ERROR)
 175              		.loc 1 80 0
 176 001e 0546     		mov	r5, r0
 177 0020 A0B9     		cbnz	r0, .L9
  81:I2C_Interface.c ****             {
  82:I2C_Interface.c ****                 // Send restart condition
  83:I2C_Interface.c ****                 error = I2C_Master_MasterSendRestart(device_address, I2C_Master_READ_XFER_MODE);
 178              		.loc 1 83 0
 179 0022 0121     		movs	r1, #1
 180 0024 4046     		mov	r0, r8
 181              	.LVL18:
 182 0026 FFF7FEFF 		bl	I2C_Master_MasterSendRestart
 183              	.LVL19:
  84:I2C_Interface.c ****                 if (error == I2C_Master_MSTR_NO_ERROR)
 184              		.loc 1 84 0
 185 002a 0546     		mov	r5, r0
 186 002c 70B9     		cbnz	r0, .L9
  85:I2C_Interface.c ****                 {
  86:I2C_Interface.c ****                     register_count = register_count-1; // Start counting from 0
 187              		.loc 1 86 0
 188 002e 013C     		subs	r4, r4, #1
 189 0030 E4B2     		uxtb	r4, r4
 190              	.LVL20:
  87:I2C_Interface.c ****                     while(register_count!=0){
 191              		.loc 1 87 0
 192 0032 05E0     		b	.L10
 193              	.LVL21:
 194              	.L11:
  88:I2C_Interface.c ****                         data[register_count] = I2C_Master_MasterReadByte(I2C_Master_ACK_DATA);
 195              		.loc 1 88 0
 196 0034 0120     		movs	r0, #1
 197 0036 FFF7FEFF 		bl	I2C_Master_MasterReadByte
ARM GAS  C:\Users\Riccardo\AppData\Local\Temp\cc42cHCg.s 			page 6


 198              	.LVL22:
 199 003a 3055     		strb	r0, [r6, r4]
  89:I2C_Interface.c ****                         register_count--;
 200              		.loc 1 89 0
 201 003c 013C     		subs	r4, r4, #1
 202              	.LVL23:
 203 003e E4B2     		uxtb	r4, r4
 204              	.LVL24:
 205              	.L10:
  87:I2C_Interface.c ****                     while(register_count!=0){
 206              		.loc 1 87 0
 207 0040 002C     		cmp	r4, #0
 208 0042 F7D1     		bne	.L11
  90:I2C_Interface.c ****                     }
  91:I2C_Interface.c ****                     data[0] = I2C_Master_MasterReadByte(I2C_Master_NAK_DATA);
 209              		.loc 1 91 0
 210 0044 0020     		movs	r0, #0
 211 0046 FFF7FEFF 		bl	I2C_Master_MasterReadByte
 212              	.LVL25:
 213 004a 3070     		strb	r0, [r6]
 214              	.LVL26:
 215              	.L9:
  92:I2C_Interface.c ****                     
  93:I2C_Interface.c ****                 }
  94:I2C_Interface.c ****             }
  95:I2C_Interface.c ****         }
  96:I2C_Interface.c ****         // Send stop condition
  97:I2C_Interface.c ****         I2C_Master_MasterSendStop();
 216              		.loc 1 97 0
 217 004c FFF7FEFF 		bl	I2C_Master_MasterSendStop
 218              	.LVL27:
  98:I2C_Interface.c ****         // Return error code
  99:I2C_Interface.c ****         return error ? ERROR : NO_ERROR;
 100:I2C_Interface.c ****     }
 219              		.loc 1 100 0
 220 0050 281C     		adds	r0, r5, #0
 221 0052 18BF     		it	ne
 222 0054 0120     		movne	r0, #1
 223 0056 BDE8F081 		pop	{r4, r5, r6, r7, r8, pc}
 224              		.cfi_endproc
 225              	.LFE3:
 226              		.size	I2C_Peripheral_ReadRegisterMulti, .-I2C_Peripheral_ReadRegisterMulti
 227 005a 00BF     		.section	.text.I2C_Peripheral_WriteRegister,"ax",%progbits
 228              		.align	2
 229              		.global	I2C_Peripheral_WriteRegister
 230              		.thumb
 231              		.thumb_func
 232              		.type	I2C_Peripheral_WriteRegister, %function
 233              	I2C_Peripheral_WriteRegister:
 234              	.LFB4:
 101:I2C_Interface.c ****     
 102:I2C_Interface.c ****     ErrorCode I2C_Peripheral_WriteRegister(uint8_t device_address,
 103:I2C_Interface.c ****                                             uint8_t register_address,
 104:I2C_Interface.c ****                                             uint8_t data)
 105:I2C_Interface.c ****     {
 235              		.loc 1 105 0
 236              		.cfi_startproc
ARM GAS  C:\Users\Riccardo\AppData\Local\Temp\cc42cHCg.s 			page 7


 237              		@ args = 0, pretend = 0, frame = 0
 238              		@ frame_needed = 0, uses_anonymous_args = 0
 239              	.LVL28:
 240 0000 70B5     		push	{r4, r5, r6, lr}
 241              		.cfi_def_cfa_offset 16
 242              		.cfi_offset 4, -16
 243              		.cfi_offset 5, -12
 244              		.cfi_offset 6, -8
 245              		.cfi_offset 14, -4
 246 0002 0D46     		mov	r5, r1
 247 0004 1646     		mov	r6, r2
 106:I2C_Interface.c ****         // Send start condition
 107:I2C_Interface.c ****         uint8_t error = I2C_Master_MasterSendStart(device_address, I2C_Master_WRITE_XFER_MODE);
 248              		.loc 1 107 0
 249 0006 0021     		movs	r1, #0
 250              	.LVL29:
 251 0008 FFF7FEFF 		bl	I2C_Master_MasterSendStart
 252              	.LVL30:
 108:I2C_Interface.c ****         if (error == I2C_Master_MSTR_NO_ERROR)
 253              		.loc 1 108 0
 254 000c 0446     		mov	r4, r0
 255 000e 40B9     		cbnz	r0, .L14
 109:I2C_Interface.c ****         {
 110:I2C_Interface.c ****             // Write register address
 111:I2C_Interface.c ****             error = I2C_Master_MasterWriteByte(register_address);
 256              		.loc 1 111 0
 257 0010 2846     		mov	r0, r5
 258              	.LVL31:
 259 0012 FFF7FEFF 		bl	I2C_Master_MasterWriteByte
 260              	.LVL32:
 112:I2C_Interface.c ****             if (error == I2C_Master_MSTR_NO_ERROR)
 261              		.loc 1 112 0
 262 0016 0446     		mov	r4, r0
 263 0018 18B9     		cbnz	r0, .L14
 113:I2C_Interface.c ****             {
 114:I2C_Interface.c ****                 // Write byte of interest
 115:I2C_Interface.c ****                 error = I2C_Master_MasterWriteByte(data);
 264              		.loc 1 115 0
 265 001a 3046     		mov	r0, r6
 266              	.LVL33:
 267 001c FFF7FEFF 		bl	I2C_Master_MasterWriteByte
 268              	.LVL34:
 269 0020 0446     		mov	r4, r0
 270              	.LVL35:
 271              	.L14:
 116:I2C_Interface.c ****             }
 117:I2C_Interface.c ****         }
 118:I2C_Interface.c ****         // Send stop condition
 119:I2C_Interface.c ****         I2C_Master_MasterSendStop();
 272              		.loc 1 119 0
 273 0022 FFF7FEFF 		bl	I2C_Master_MasterSendStop
 274              	.LVL36:
 120:I2C_Interface.c ****         // Return error code
 121:I2C_Interface.c ****         return error ? ERROR : NO_ERROR;
 122:I2C_Interface.c ****     }
 275              		.loc 1 122 0
 276 0026 201C     		adds	r0, r4, #0
ARM GAS  C:\Users\Riccardo\AppData\Local\Temp\cc42cHCg.s 			page 8


 277 0028 18BF     		it	ne
 278 002a 0120     		movne	r0, #1
 279 002c 70BD     		pop	{r4, r5, r6, pc}
 280              		.cfi_endproc
 281              	.LFE4:
 282              		.size	I2C_Peripheral_WriteRegister, .-I2C_Peripheral_WriteRegister
 283 002e 00BF     		.section	.text.I2C_Peripheral_WriteRegisterMulti,"ax",%progbits
 284              		.align	2
 285              		.global	I2C_Peripheral_WriteRegisterMulti
 286              		.thumb
 287              		.thumb_func
 288              		.type	I2C_Peripheral_WriteRegisterMulti, %function
 289              	I2C_Peripheral_WriteRegisterMulti:
 290              	.LFB5:
 123:I2C_Interface.c ****     
 124:I2C_Interface.c ****     ErrorCode I2C_Peripheral_WriteRegisterMulti(uint8_t device_address,
 125:I2C_Interface.c ****                                             uint8_t register_address,
 126:I2C_Interface.c ****                                             uint8_t register_count,
 127:I2C_Interface.c ****                                             uint8_t* data)
 128:I2C_Interface.c ****     {
 291              		.loc 1 128 0
 292              		.cfi_startproc
 293              		@ args = 0, pretend = 0, frame = 0
 294              		@ frame_needed = 0, uses_anonymous_args = 0
 295              	.LVL37:
 296 0000 F8B5     		push	{r3, r4, r5, r6, r7, lr}
 297              		.cfi_def_cfa_offset 24
 298              		.cfi_offset 3, -24
 299              		.cfi_offset 4, -20
 300              		.cfi_offset 5, -16
 301              		.cfi_offset 6, -12
 302              		.cfi_offset 7, -8
 303              		.cfi_offset 14, -4
 304 0002 0F46     		mov	r7, r1
 305 0004 1446     		mov	r4, r2
 306 0006 1D46     		mov	r5, r3
 129:I2C_Interface.c ****         // Send start condition
 130:I2C_Interface.c ****         uint8_t error = I2C_Master_MasterSendStart(device_address, I2C_Master_WRITE_XFER_MODE);
 307              		.loc 1 130 0
 308 0008 0021     		movs	r1, #0
 309              	.LVL38:
 310 000a FFF7FEFF 		bl	I2C_Master_MasterSendStart
 311              	.LVL39:
 131:I2C_Interface.c ****         if (error == I2C_Master_MSTR_NO_ERROR)
 312              		.loc 1 131 0
 313 000e 0646     		mov	r6, r0
 314 0010 68B9     		cbnz	r0, .L17
 315              	.LVL40:
 132:I2C_Interface.c ****         {
 133:I2C_Interface.c ****             // Write register address
 134:I2C_Interface.c ****             register_address |= 0x80;
 135:I2C_Interface.c ****             error = I2C_Master_MasterWriteByte(register_address);
 316              		.loc 1 135 0
 317 0012 47F08000 		orr	r0, r7, #128
 318              	.LVL41:
 319 0016 FFF7FEFF 		bl	I2C_Master_MasterWriteByte
 320              	.LVL42:
ARM GAS  C:\Users\Riccardo\AppData\Local\Temp\cc42cHCg.s 			page 9


 136:I2C_Interface.c ****             if (error == I2C_Master_MSTR_NO_ERROR)
 321              		.loc 1 136 0
 322 001a 0646     		mov	r6, r0
 323 001c 38B9     		cbnz	r0, .L17
 137:I2C_Interface.c ****             {
 138:I2C_Interface.c ****                 // Write byte of interest
 139:I2C_Interface.c ****                 register_count=register_count-1;
 324              		.loc 1 139 0
 325 001e 013C     		subs	r4, r4, #1
 326 0020 E4B2     		uxtb	r4, r4
 327              	.LVL43:
 328              	.L18:
 140:I2C_Interface.c ****                 while(register_address>0){
 141:I2C_Interface.c ****                 error = I2C_Master_MasterWriteByte(data[register_count]);
 329              		.loc 1 141 0
 330 0022 285D     		ldrb	r0, [r5, r4]	@ zero_extendqisi2
 331 0024 FFF7FEFF 		bl	I2C_Master_MasterWriteByte
 332              	.LVL44:
 142:I2C_Interface.c ****                 register_count--;
 333              		.loc 1 142 0
 334 0028 013C     		subs	r4, r4, #1
 335              	.LVL45:
 336 002a E4B2     		uxtb	r4, r4
 337              	.LVL46:
 338 002c F9E7     		b	.L18
 339              	.LVL47:
 340              	.L17:
 143:I2C_Interface.c ****                 }
 144:I2C_Interface.c ****             }
 145:I2C_Interface.c ****         }
 146:I2C_Interface.c ****         // Send stop condition
 147:I2C_Interface.c ****         I2C_Master_MasterSendStop();
 341              		.loc 1 147 0
 342 002e FFF7FEFF 		bl	I2C_Master_MasterSendStop
 343              	.LVL48:
 148:I2C_Interface.c ****         // Return error code
 149:I2C_Interface.c ****         return error ? ERROR : NO_ERROR;
 150:I2C_Interface.c ****     }
 344              		.loc 1 150 0
 345 0032 301C     		adds	r0, r6, #0
 346 0034 18BF     		it	ne
 347 0036 0120     		movne	r0, #1
 348 0038 F8BD     		pop	{r3, r4, r5, r6, r7, pc}
 349              		.cfi_endproc
 350              	.LFE5:
 351              		.size	I2C_Peripheral_WriteRegisterMulti, .-I2C_Peripheral_WriteRegisterMulti
 352 003a 00BF     		.section	.text.I2C_Peripheral_IsDeviceConnected,"ax",%progbits
 353              		.align	2
 354              		.global	I2C_Peripheral_IsDeviceConnected
 355              		.thumb
 356              		.thumb_func
 357              		.type	I2C_Peripheral_IsDeviceConnected, %function
 358              	I2C_Peripheral_IsDeviceConnected:
 359              	.LFB6:
 151:I2C_Interface.c ****     
 152:I2C_Interface.c ****     
 153:I2C_Interface.c ****     
ARM GAS  C:\Users\Riccardo\AppData\Local\Temp\cc42cHCg.s 			page 10


 154:I2C_Interface.c ****     uint8_t I2C_Peripheral_IsDeviceConnected(uint8_t device_address)
 155:I2C_Interface.c ****     {
 360              		.loc 1 155 0
 361              		.cfi_startproc
 362              		@ args = 0, pretend = 0, frame = 0
 363              		@ frame_needed = 0, uses_anonymous_args = 0
 364              	.LVL49:
 365 0000 10B5     		push	{r4, lr}
 366              		.cfi_def_cfa_offset 8
 367              		.cfi_offset 4, -8
 368              		.cfi_offset 14, -4
 156:I2C_Interface.c ****         // Send a start condition followed by a stop condition
 157:I2C_Interface.c ****         uint8_t error = I2C_Master_MasterSendStart(device_address, I2C_Master_WRITE_XFER_MODE);
 369              		.loc 1 157 0
 370 0002 0021     		movs	r1, #0
 371 0004 FFF7FEFF 		bl	I2C_Master_MasterSendStart
 372              	.LVL50:
 373 0008 0446     		mov	r4, r0
 374              	.LVL51:
 158:I2C_Interface.c ****         I2C_Master_MasterSendStop();
 375              		.loc 1 158 0
 376 000a FFF7FEFF 		bl	I2C_Master_MasterSendStop
 377              	.LVL52:
 159:I2C_Interface.c ****         // If no error generated during stop, device is connected
 160:I2C_Interface.c ****         if (error == I2C_Master_MSTR_NO_ERROR)
 378              		.loc 1 160 0
 379 000e 0CB9     		cbnz	r4, .L22
 161:I2C_Interface.c ****         {
 162:I2C_Interface.c ****             return DEVICE_CONNECTED;
 380              		.loc 1 162 0
 381 0010 0120     		movs	r0, #1
 382 0012 10BD     		pop	{r4, pc}
 383              	.LVL53:
 384              	.L22:
 163:I2C_Interface.c ****         }
 164:I2C_Interface.c ****         return DEVICE_UNCONNECTED;
 385              		.loc 1 164 0
 386 0014 0020     		movs	r0, #0
 165:I2C_Interface.c ****     }
 387              		.loc 1 165 0
 388 0016 10BD     		pop	{r4, pc}
 389              		.cfi_endproc
 390              	.LFE6:
 391              		.size	I2C_Peripheral_IsDeviceConnected, .-I2C_Peripheral_IsDeviceConnected
 392              		.text
 393              	.Letext0:
 394              		.file 2 "c:\\program files (x86)\\cypress\\psoc creator\\4.3\\psoc creator\\import\\gnu\\arm\\5.4.
 395              		.file 3 "c:\\program files (x86)\\cypress\\psoc creator\\4.3\\psoc creator\\import\\gnu\\arm\\5.4.
 396              		.file 4 "ErrorCodes.h"
 397              		.file 5 "Generated_Source\\PSoC5/I2C_Master.h"